; Function Attrs: mustprogress nounwind uwtable
define void @_ZN5folly6detail24MergingCancellationState7destroyEv(ptr noundef nonnull align 16 dereferenceable(40) %0) local_unnamed_addr #0 align 2 personality ptr @__gxx_personality_v0 {
  %2 = getelementptr inbounds nuw i8, ptr %0, i64 32
  %3 = load ptr, ptr %2, align 16, !tbaa !42
  %4 = ptrtoint ptr %3 to i64
  %5 = ptrtoint ptr %0 to i64
  %6 = sub i64 %4, %5
  %7 = load ptr, ptr %0, align 16, !tbaa !7
  %8 = load ptr, ptr %7, align 8
  tail call void %8(ptr noundef nonnull align 16 dereferenceable(40) %0) #14
  tail call void @_ZdlPvm(ptr noundef nonnull %0, i64 noundef %6) #14
  ret void
}